target datalayout = "e-m:e-p270:32:32-p271:32:32-p272:64:64-i64:64-i128:128-f80:128-n8:16:32:64-S128"
target triple = "x86_64-pc-linux-gnu"

@globalUtilOptind = external global i32, align 4
@.str.40 = private unnamed_addr constant [27 x i8] c"Library is not available.\0A\00", align 1
@.str.41 = private unnamed_addr constant [29 x i8] c"The file name is not given.\0A\00", align 1
@.str.42 = private unnamed_addr constant [2 x i8] c"w\00", align 1
@.str.43 = private unnamed_addr constant [55 x i8] c"Error! Cannot open file \22%s\22 for writing the library.\0A\00", align 1
@.str.50 = private unnamed_addr constant [36 x i8] c"\09-h      : print the command usage\0A\00", align 1
@.str.56 = private unnamed_addr constant [2 x i8] c"h\00", align 1
@.str.63 = private unnamed_addr constant [48 x i8] c"The current profile is written into file \22%s\22.\0A\00", align 1
@.str.64 = private unnamed_addr constant [35 x i8] c"\0Ausage: write_profile [-h] <file>\0A\00", align 1
@.str.65 = private unnamed_addr constant [51 x i8] c"\09          writes the current profile into a file\0A\00", align 1
@.str.66 = private unnamed_addr constant [43 x i8] c"\09<file>  : file name to write the profile\0A\00", align 1

; Function Attrs: nounwind uwtable
define internal i32 @Mio_CommandWriteProfile(ptr noundef %0, i32 noundef %1, ptr noundef %2) #0 {
  %4 = alloca i32, align 4
  %5 = alloca ptr, align 8
  %6 = alloca i32, align 4
  %7 = alloca ptr, align 8
  %8 = alloca ptr, align 8
  %9 = alloca ptr, align 8
  %10 = alloca ptr, align 8
  %11 = alloca ptr, align 8
  %12 = alloca i32, align 4
  store ptr %0, ptr %5, align 8
  store i32 %1, ptr %6, align 4
  store ptr %2, ptr %7, align 8
  %13 = load ptr, ptr %5, align 8
  %14 = call ptr @Abc_FrameReadOut(ptr noundef %13)
  store ptr %14, ptr %8, align 8
  %15 = load ptr, ptr %5, align 8
  %16 = call ptr @Abc_FrameReadErr(ptr noundef %15)
  store ptr %16, ptr %9, align 8
  call void (...) @Extra_UtilGetoptReset()
  br label %17

17:                                               ; preds = %3
  %18 = load i32, ptr %6, align 4
  %19 = load ptr, ptr %7, align 8
  %20 = call i32 @Extra_UtilGetopt(i32 noundef %18, ptr noundef %19, ptr noundef @.str.56)
  store i32 %20, ptr %12, align 4
  %21 = icmp ne i32 %20, -1
  br i1 %21, label %22, label %26

22:                                               ; preds = %17
  %23 = load i32, ptr %12, align 4
  switch i32 %23, label %25 [
    i32 104, label %24
  ]

24:                                               ; preds = %22
  br label %58

25:                                               ; preds = %22
  br label %58

26:                                               ; preds = %17
  %27 = call ptr (...) @Abc_FrameReadLibGen()
  %28 = icmp eq ptr %27, null
  br i1 %28, label %29, label %31

29:                                               ; preds = %26
  %30 = call i32 (ptr, ...) @printf(ptr noundef @.str.40)
  store i32 1, ptr %4, align 4
  br label %67

31:                                               ; preds = %26
  %32 = load i32, ptr %6, align 4
  %33 = load i32, ptr @globalUtilOptind, align 4
  %34 = add nsw i32 %33, 1
  %35 = icmp ne i32 %32, %34
  br i1 %35, label %36, label %38

36:                                               ; preds = %31
  %37 = call i32 (ptr, ...) @printf(ptr noundef @.str.41)
  store i32 1, ptr %4, align 4
  br label %67

38:                                               ; preds = %31
  %39 = load ptr, ptr %7, align 8
  %40 = load i32, ptr @globalUtilOptind, align 4
  %41 = sext i32 %40 to i64
  %42 = getelementptr inbounds ptr, ptr %39, i64 %41
  %43 = load ptr, ptr %42, align 8
  store ptr %43, ptr %11, align 8
  %44 = load ptr, ptr %11, align 8
  %45 = call noalias ptr @fopen(ptr noundef %44, ptr noundef @.str.42)
  store ptr %45, ptr %10, align 8
  %46 = load ptr, ptr %10, align 8
  %47 = icmp eq ptr %46, null
  br i1 %47, label %48, label %51

48:                                               ; preds = %38
  %49 = load ptr, ptr %11, align 8
  %50 = call i32 (ptr, ...) @printf(ptr noundef @.str.43, ptr noundef %49)
  store i32 1, ptr %4, align 4
  br label %67

51:                                               ; preds = %38
  %52 = load ptr, ptr %10, align 8
  %53 = call ptr (...) @Abc_FrameReadLibGen()
  call void @Mio_LibraryWriteProfile(ptr noundef %52, ptr noundef %53)
  %54 = load ptr, ptr %10, align 8
  %55 = call i32 @fclose(ptr noundef %54)
  %56 = load ptr, ptr %11, align 8
  %57 = call i32 (ptr, ...) @printf(ptr noundef @.str.63, ptr noundef %56)
  store i32 0, ptr %4, align 4
  br label %67

58:                                               ; preds = %25, %24
  %59 = load ptr, ptr %9, align 8
  %60 = call i32 (ptr, ptr, ...) @fprintf(ptr noundef %59, ptr noundef @.str.64) #6
  %61 = load ptr, ptr %9, align 8
  %62 = call i32 (ptr, ptr, ...) @fprintf(ptr noundef %61, ptr noundef @.str.65) #6
  %63 = load ptr, ptr %9, align 8
  %64 = call i32 (ptr, ptr, ...) @fprintf(ptr noundef %63, ptr noundef @.str.50) #6
  %65 = load ptr, ptr %9, align 8
  %66 = call i32 (ptr, ptr, ...) @fprintf(ptr noundef %65, ptr noundef @.str.66) #6
  store i32 1, ptr %4, align 4
  br label %67

67:                                               ; preds = %58, %51, %48, %36, %29
  %68 = load i32, ptr %4, align 4
  ret i32 %68
}