; Function Attrs: nounwind uwtable
define internal range(i32 0, 2) i32 @Mio_CommandWriteProfile(ptr noundef %0, i32 noundef %1, ptr noundef %2) #0 {
  %4 = tail call ptr @Abc_FrameReadOut(ptr noundef %0) #8
  %5 = tail call ptr @Abc_FrameReadErr(ptr noundef %0) #8
  tail call void (...) @Extra_UtilGetoptReset() #8
  %6 = tail call i32 @Extra_UtilGetopt(i32 noundef %1, ptr noundef %2, ptr noundef nonnull @.str.56) #8
  %.not = icmp eq i32 %6, -1
  br i1 %.not, label %7, label %27

7:                                                ; preds = %3
  %8 = tail call ptr (...) @Abc_FrameReadLibGen() #8
  %9 = icmp eq ptr %8, null
  br i1 %9, label %10, label %11

10:                                               ; preds = %7
  %puts18 = tail call i32 @puts(ptr nonnull dereferenceable(1) @str.5)
  br label %32

11:                                               ; preds = %7
  %12 = load i32, ptr @globalUtilOptind, align 4
  %13 = add nsw i32 %12, 1
  %.not17 = icmp eq i32 %1, %13
  br i1 %.not17, label %15, label %14

14:                                               ; preds = %11
  %puts = tail call i32 @puts(ptr nonnull dereferenceable(1) @str.3)
  br label %32

15:                                               ; preds = %11
  %16 = sext i32 %12 to i64
  %17 = getelementptr inbounds ptr, ptr %2, i64 %16
  %18 = load ptr, ptr %17, align 8
  %19 = tail call noalias ptr @fopen(ptr noundef %18, ptr noundef nonnull @.str.42)
  %20 = icmp eq ptr %19, null
  br i1 %20, label %21, label %23

21:                                               ; preds = %15
  %22 = tail call i32 (ptr, ...) @printf(ptr noundef nonnull dereferenceable(1) @.str.43, ptr noundef %18)
  br label %32

23:                                               ; preds = %15
  %24 = tail call ptr (...) @Abc_FrameReadLibGen() #8
  tail call void @Mio_LibraryWriteProfile(ptr noundef nonnull %19, ptr noundef %24) #8
  %25 = tail call i32 @fclose(ptr noundef nonnull %19)
  %26 = tail call i32 (ptr, ...) @printf(ptr noundef nonnull dereferenceable(1) @.str.63, ptr noundef %18)
  br label %32

27:                                               ; preds = %3
  %28 = tail call i64 @fwrite(ptr nonnull @.str.64, i64 34, i64 1, ptr %5)
  %29 = tail call i64 @fwrite(ptr nonnull @.str.65, i64 50, i64 1, ptr %5)
  %30 = tail call i64 @fwrite(ptr nonnull @.str.50, i64 35, i64 1, ptr %5)
  %31 = tail call i64 @fwrite(ptr nonnull @.str.66, i64 42, i64 1, ptr %5)
  br label %32

32:                                               ; preds = %27, %23, %21, %14, %10
  %.0 = phi i32 [ 1, %27 ], [ 1, %10 ], [ 1, %14 ], [ 1, %21 ], [ 0, %23 ]
  ret i32 %.0
}